target datalayout = "e-m:e-p270:32:32-p271:32:32-p272:64:64-i64:64-i128:128-f80:128-n8:16:32:64-S128"
target triple = "x86_64-pc-linux-gnu"

; Function Attrs: mustprogress nounwind uwtable
define noundef zeroext i1 @_ZN7glslang13TIntermediate7promoteEPNS_15TIntermOperatorE(ptr noundef nonnull align 8 dereferenceable(2024) %0, ptr noundef %1) #0 align 2 {
  %3 = alloca i1, align 1
  %4 = alloca ptr, align 8
  %5 = alloca ptr, align 8
  store ptr %0, ptr %4, align 8
  store ptr %1, ptr %5, align 8
  %6 = load ptr, ptr %4, align 8
  %7 = load ptr, ptr %5, align 8
  %8 = icmp eq ptr %7, null
  br i1 %8, label %9, label %10

9:                                                ; preds = %2
  store i1 false, ptr %3, align 1
  br label %53

10:                                               ; preds = %2
  %11 = load ptr, ptr %5, align 8
  %12 = load ptr, ptr %11, align 8
  %13 = getelementptr inbounds ptr, ptr %12, i64 7
  %14 = load ptr, ptr %13, align 8
  %15 = call noundef ptr %14(ptr noundef nonnull align 8 dereferenceable(32) %11)
  %16 = icmp ne ptr %15, null
  br i1 %16, label %17, label %24

17:                                               ; preds = %10
  %18 = load ptr, ptr %5, align 8
  %19 = load ptr, ptr %18, align 8
  %20 = getelementptr inbounds ptr, ptr %19, i64 7
  %21 = load ptr, ptr %20, align 8
  %22 = call noundef ptr %21(ptr noundef nonnull align 8 dereferenceable(32) %18)
  %23 = call noundef zeroext i1 @_ZN7glslang13TIntermediate12promoteUnaryERNS_12TIntermUnaryE(ptr noundef nonnull align 8 dereferenceable(2024) %6, ptr noundef nonnull align 8 dereferenceable(248) %22)
  store i1 %23, ptr %3, align 1
  br label %53

24:                                               ; preds = %10
  %25 = load ptr, ptr %5, align 8
  %26 = load ptr, ptr %25, align 8
  %27 = getelementptr inbounds ptr, ptr %26, i64 8
  %28 = load ptr, ptr %27, align 8
  %29 = call noundef ptr %28(ptr noundef nonnull align 8 dereferenceable(32) %25)
  %30 = icmp ne ptr %29, null
  br i1 %30, label %31, label %38

31:                                               ; preds = %24
  %32 = load ptr, ptr %5, align 8
  %33 = load ptr, ptr %32, align 8
  %34 = getelementptr inbounds ptr, ptr %33, i64 8
  %35 = load ptr, ptr %34, align 8
  %36 = call noundef ptr %35(ptr noundef nonnull align 8 dereferenceable(32) %32)
  %37 = call noundef zeroext i1 @_ZN7glslang13TIntermediate13promoteBinaryERNS_13TIntermBinaryE(ptr noundef nonnull align 8 dereferenceable(2024) %6, ptr noundef nonnull align 8 dereferenceable(208) %36)
  store i1 %37, ptr %3, align 1
  br label %53

38:                                               ; preds = %24
  %39 = load ptr, ptr %5, align 8
  %40 = load ptr, ptr %39, align 8
  %41 = getelementptr inbounds ptr, ptr %40, i64 6
  %42 = load ptr, ptr %41, align 8
  %43 = call noundef ptr %42(ptr noundef nonnull align 8 dereferenceable(32) %39)
  %44 = icmp ne ptr %43, null
  br i1 %44, label %45, label %52

45:                                               ; preds = %38
  %46 = load ptr, ptr %5, align 8
  %47 = load ptr, ptr %46, align 8
  %48 = getelementptr inbounds ptr, ptr %47, i64 6
  %49 = load ptr, ptr %48, align 8
  %50 = call noundef ptr %49(ptr noundef nonnull align 8 dereferenceable(32) %46)
  %51 = call noundef zeroext i1 @_ZN7glslang13TIntermediate16promoteAggregateERNS_16TIntermAggregateE(ptr noundef nonnull align 8 dereferenceable(2024) %6, ptr noundef nonnull align 8 dereferenceable(364) %50)
  store i1 %51, ptr %3, align 1
  br label %53

52:                                               ; preds = %38
  store i1 false, ptr %3, align 1
  br label %53

53:                                               ; preds = %52, %45, %31, %17, %9
  %54 = load i1, ptr %3, align 1
  ret i1 %54
}