; Function Attrs: mustprogress nounwind uwtable
define noundef zeroext i1 @_ZN7glslang13TIntermediate7promoteEPNS_15TIntermOperatorE(ptr noundef nonnull align 8 dereferenceable(2024) %0, ptr noundef %1) local_unnamed_addr #0 align 2 {
  %3 = icmp eq ptr %1, null
  br i1 %3, label %35, label %4

4:                                                ; preds = %2
  %5 = load ptr, ptr %1, align 8
  %6 = getelementptr inbounds i8, ptr %5, i64 56
  %7 = load ptr, ptr %6, align 8
  %8 = tail call noundef ptr %7(ptr noundef nonnull align 8 dereferenceable(32) %1) #17
  %.not = icmp eq ptr %8, null
  %9 = load ptr, ptr %1, align 8
  br i1 %.not, label %15, label %10

10:                                               ; preds = %4
  %11 = getelementptr inbounds i8, ptr %9, i64 56
  %12 = load ptr, ptr %11, align 8
  %13 = tail call noundef ptr %12(ptr noundef nonnull align 8 dereferenceable(32) %1) #17
  %14 = tail call noundef zeroext i1 @_ZN7glslang13TIntermediate12promoteUnaryERNS_12TIntermUnaryE(ptr noundef nonnull align 8 dereferenceable(2024) %0, ptr noundef nonnull align 8 dereferenceable(248) %13)
  br label %35

15:                                               ; preds = %4
  %16 = getelementptr inbounds i8, ptr %9, i64 64
  %17 = load ptr, ptr %16, align 8
  %18 = tail call noundef ptr %17(ptr noundef nonnull align 8 dereferenceable(32) %1) #17
  %.not10 = icmp eq ptr %18, null
  %19 = load ptr, ptr %1, align 8
  br i1 %.not10, label %25, label %20

20:                                               ; preds = %15
  %21 = getelementptr inbounds i8, ptr %19, i64 64
  %22 = load ptr, ptr %21, align 8
  %23 = tail call noundef ptr %22(ptr noundef nonnull align 8 dereferenceable(32) %1) #17
  %24 = tail call noundef zeroext i1 @_ZN7glslang13TIntermediate13promoteBinaryERNS_13TIntermBinaryE(ptr noundef nonnull align 8 dereferenceable(2024) %0, ptr noundef nonnull align 8 dereferenceable(208) %23)
  br label %35

25:                                               ; preds = %15
  %26 = getelementptr inbounds i8, ptr %19, i64 48
  %27 = load ptr, ptr %26, align 8
  %28 = tail call noundef ptr %27(ptr noundef nonnull align 8 dereferenceable(32) %1) #17
  %.not11 = icmp eq ptr %28, null
  br i1 %.not11, label %35, label %29

29:                                               ; preds = %25
  %30 = load ptr, ptr %1, align 8
  %31 = getelementptr inbounds i8, ptr %30, i64 48
  %32 = load ptr, ptr %31, align 8
  %33 = tail call noundef ptr %32(ptr noundef nonnull align 8 dereferenceable(32) %1) #17
  %34 = tail call noundef zeroext i1 @_ZN7glslang13TIntermediate16promoteAggregateERNS_16TIntermAggregateE(ptr noundef nonnull align 8 dereferenceable(2024) %0, ptr noundef nonnull align 8 dereferenceable(364) %33)
  br label %35

35:                                               ; preds = %25, %2, %29, %20, %10
  %.0 = phi i1 [ %14, %10 ], [ %24, %20 ], [ %34, %29 ], [ false, %2 ], [ false, %25 ]
  ret i1 %.0
}